target datalayout = "e-m:e-p270:32:32-p271:32:32-p272:64:64-i64:64-i128:128-f80:128-n8:16:32:64-S128"
target triple = "x86_64-pc-linux-gnu"

%"class.(anonymous namespace)::RadialVarianceHashImpl" = type { %"class.cv::img_hash::ImgHashBase::ImgHashImpl", %"class.cv::Mat", %"class.std::vector", %"class.cv::Mat", i32, %"class.cv::Mat", %"class.cv::Mat", double }
%"class.cv::img_hash::ImgHashBase::ImgHashImpl" = type { ptr }
%"class.std::vector" = type { %"struct.std::_Vector_base" }
%"struct.std::_Vector_base" = type { %"struct.std::_Vector_base<double, std::allocator<double>>::_Vector_impl" }
%"struct.std::_Vector_base<double, std::allocator<double>>::_Vector_impl" = type { %"struct.std::_Vector_base<double, std::allocator<double>>::_Vector_impl_data" }
%"struct.std::_Vector_base<double, std::allocator<double>>::_Vector_impl_data" = type { ptr, ptr, ptr }
%"class.cv::Mat" = type { i32, i32, i32, i32, ptr, ptr, ptr, ptr, ptr, ptr, %"struct.cv::MatSize", %"struct.cv::MatStep" }
%"struct.cv::MatSize" = type { ptr }
%"struct.cv::MatStep" = type { ptr, [2 x i64] }

; Function Attrs: mustprogress nounwind uwtable
define linkonce_odr hidden void @_ZNSt15__new_allocatorIdEC2Ev(ptr noundef nonnull align 1 dereferenceable(1) %0) unnamed_addr #9 comdat align 2 {
  %2 = alloca ptr, align 8
  store ptr %0, ptr %2, align 8, !tbaa !118
  ret void
}

; Function Attrs: mustprogress nounwind uwtable
define linkonce_odr hidden void @_ZNSt12_Vector_baseIdSaIdEE17_Vector_impl_dataC2Ev(ptr noundef nonnull align 8 dereferenceable(24) %0) unnamed_addr #9 comdat align 2 {
  %2 = alloca ptr, align 8
  store ptr %0, ptr %2, align 8, !tbaa !149
  %3 = load ptr, ptr %2, align 8
  %4 = getelementptr inbounds nuw %"struct.std::_Vector_base<double, std::allocator<double>>::_Vector_impl_data", ptr %3, i32 0, i32 0
  store ptr null, ptr %4, align 8, !tbaa !54
  %5 = getelementptr inbounds nuw %"struct.std::_Vector_base<double, std::allocator<double>>::_Vector_impl_data", ptr %3, i32 0, i32 1
  store ptr null, ptr %5, align 8, !tbaa !55
  %6 = getelementptr inbounds nuw %"struct.std::_Vector_base<double, std::allocator<double>>::_Vector_impl_data", ptr %3, i32 0, i32 2
  store ptr null, ptr %6, align 8, !tbaa !112
  ret void
}

; Function Attrs: mustprogress nounwind uwtable
define linkonce_odr hidden void @_ZNSaIdEC2Ev(ptr noundef nonnull align 1 dereferenceable(1) %0) unnamed_addr #9 comdat align 2 {
  %2 = alloca ptr, align 8
  store ptr %0, ptr %2, align 8, !tbaa !113
  %3 = load ptr, ptr %2, align 8
  call void @_ZNSt15__new_allocatorIdEC2Ev(ptr noundef nonnull align 1 dereferenceable(1) %3) #3
  ret void
}

; Function Attrs: mustprogress nounwind uwtable
define linkonce_odr hidden void @_ZNSt12_Vector_baseIdSaIdEE12_Vector_implC2Ev(ptr noundef nonnull align 8 dereferenceable(24) %0) unnamed_addr #9 comdat align 2 {
  %2 = alloca ptr, align 8
  store ptr %0, ptr %2, align 8, !tbaa !147
  %3 = load ptr, ptr %2, align 8
  call void @_ZNSaIdEC2Ev(ptr noundef nonnull align 1 dereferenceable(1) %3) #3
  call void @_ZNSt12_Vector_baseIdSaIdEE17_Vector_impl_dataC2Ev(ptr noundef nonnull align 8 dereferenceable(24) %3) #3
  ret void
}

; Function Attrs: mustprogress nounwind uwtable
define linkonce_odr hidden void @_ZNSt12_Vector_baseIdSaIdEEC2Ev(ptr noundef nonnull align 8 dereferenceable(24) %0) unnamed_addr #9 comdat align 2 {
  %2 = alloca ptr, align 8
  store ptr %0, ptr %2, align 8, !tbaa !115
  %3 = load ptr, ptr %2, align 8
  %4 = getelementptr inbounds nuw %"struct.std::_Vector_base", ptr %3, i32 0, i32 0
  call void @_ZNSt12_Vector_baseIdSaIdEE12_Vector_implC2Ev(ptr noundef nonnull align 8 dereferenceable(24) %4) #3
  ret void
}

; Function Attrs: mustprogress nounwind uwtable
define linkonce_odr hidden void @_ZNSt6vectorIdSaIdEEC2Ev(ptr noundef nonnull align 8 dereferenceable(24) %0) unnamed_addr #9 comdat align 2 {
  %2 = alloca ptr, align 8
  store ptr %0, ptr %2, align 8, !tbaa !52
  %3 = load ptr, ptr %2, align 8
  call void @_ZNSt12_Vector_baseIdSaIdEEC2Ev(ptr noundef nonnull align 8 dereferenceable(24) %3) #3
  ret void
}

; Function Attrs: inlinehint mustprogress nounwind uwtable
define linkonce_odr hidden void @_ZN2cv8img_hash11ImgHashBase11ImgHashImplC2Ev(ptr noundef nonnull align 8 dereferenceable(8) %0) unnamed_addr #10 comdat align 2 {
  %2 = alloca ptr, align 8
  store ptr %0, ptr %2, align 8, !tbaa !26
  %3 = load ptr, ptr %2, align 8
  store ptr getelementptr inbounds inrange(-16, 32) ({ [6 x ptr] }, ptr @_ZTVN2cv8img_hash11ImgHashBase11ImgHashImplE, i32 0, i32 0, i32 2), ptr %3, align 8, !tbaa !12
  ret void
}

; Function Attrs: mustprogress nounwind uwtable
define internal void @_ZN12_GLOBAL__N_122RadialVarianceHashImplC2Edi(ptr noundef nonnull align 8 dereferenceable(432) %0, double noundef %1, i32 noundef %2) unnamed_addr #9 align 2 {
  %4 = alloca ptr, align 8
  %5 = alloca double, align 8
  %6 = alloca i32, align 4
  store ptr %0, ptr %4, align 8, !tbaa !28
  store double %1, ptr %5, align 8, !tbaa !3
  store i32 %2, ptr %6, align 4, !tbaa !7
  %7 = load ptr, ptr %4, align 8
  call void @_ZN2cv8img_hash11ImgHashBase11ImgHashImplC2Ev(ptr noundef nonnull align 8 dereferenceable(8) %7) #3
  store ptr getelementptr inbounds inrange(-16, 32) ({ [6 x ptr] }, ptr @_ZTVN12_GLOBAL__N_122RadialVarianceHashImplE, i32 0, i32 0, i32 2), ptr %7, align 8, !tbaa !12
  %8 = getelementptr inbounds nuw %"class.(anonymous namespace)::RadialVarianceHashImpl", ptr %7, i32 0, i32 1
  call void @_ZN2cv3MatC1Ev(ptr noundef nonnull align 8 dereferenceable(96) %8) #3
  %9 = getelementptr inbounds nuw %"class.(anonymous namespace)::RadialVarianceHashImpl", ptr %7, i32 0, i32 2
  call void @_ZNSt6vectorIdSaIdEEC2Ev(ptr noundef nonnull align 8 dereferenceable(24) %9) #3
  %10 = getelementptr inbounds nuw %"class.(anonymous namespace)::RadialVarianceHashImpl", ptr %7, i32 0, i32 3
  call void @_ZN2cv3MatC1Ev(ptr noundef nonnull align 8 dereferenceable(96) %10) #3
  %11 = getelementptr inbounds nuw %"class.(anonymous namespace)::RadialVarianceHashImpl", ptr %7, i32 0, i32 4
  %12 = load i32, ptr %6, align 4, !tbaa !7
  store i32 %12, ptr %11, align 8, !tbaa !30
  %13 = getelementptr inbounds nuw %"class.(anonymous namespace)::RadialVarianceHashImpl", ptr %7, i32 0, i32 5
  call void @_ZN2cv3MatC1Ev(ptr noundef nonnull align 8 dereferenceable(96) %13) #3
  %14 = getelementptr inbounds nuw %"class.(anonymous namespace)::RadialVarianceHashImpl", ptr %7, i32 0, i32 6
  call void @_ZN2cv3MatC1Ev(ptr noundef nonnull align 8 dereferenceable(96) %14) #3
  %15 = getelementptr inbounds nuw %"class.(anonymous namespace)::RadialVarianceHashImpl", ptr %7, i32 0, i32 7
  %16 = load double, ptr %5, align 8, !tbaa !3
  store double %16, ptr %15, align 8, !tbaa !44
  ret void
}

; Function Attrs: mustprogress uwtable
define void @_ZN2cv8img_hash18radialVarianceHashERKNS_11_InputArrayERKNS_12_OutputArrayEdi(ptr noundef nonnull align 8 dereferenceable(24) %0, ptr noundef nonnull align 8 dereferenceable(24) %1, double noundef %2, i32 noundef %3) #4 personality ptr @__gxx_personality_v0 {
  %5 = alloca ptr, align 8
  %6 = alloca ptr, align 8
  %7 = alloca double, align 8
  %8 = alloca i32, align 4
  %9 = alloca %"class.(anonymous namespace)::RadialVarianceHashImpl", align 8
  %10 = alloca ptr, align 8
  %11 = alloca i32, align 4
  store ptr %0, ptr %5, align 8, !tbaa !65
  store ptr %1, ptr %6, align 8, !tbaa !67
  store double %2, ptr %7, align 8, !tbaa !3
  store i32 %3, ptr %8, align 4, !tbaa !7
  call void @llvm.lifetime.start.p0(i64 432, ptr %9) #3
  %12 = load double, ptr %7, align 8, !tbaa !3
  %13 = load i32, ptr %8, align 4, !tbaa !7
  call void @_ZN12_GLOBAL__N_122RadialVarianceHashImplC2Edi(ptr noundef nonnull align 8 dereferenceable(432) %9, double noundef %12, i32 noundef %13)
  %14 = load ptr, ptr %5, align 8, !tbaa !65
  %15 = load ptr, ptr %6, align 8, !tbaa !67
  invoke void @_ZN12_GLOBAL__N_122RadialVarianceHashImpl7computeERKN2cv11_InputArrayERKNS1_12_OutputArrayE(ptr noundef nonnull align 8 dereferenceable(432) %9, ptr noundef nonnull align 8 dereferenceable(24) %14, ptr noundef nonnull align 8 dereferenceable(24) %15)
          to label %16 unwind label %17

16:                                               ; preds = %4
  call void @_ZN12_GLOBAL__N_122RadialVarianceHashImplD2Ev(ptr noundef nonnull align 8 dereferenceable(432) %9) #3
  call void @llvm.lifetime.end.p0(i64 432, ptr %9) #3
  ret void

17:                                               ; preds = %4
  %18 = landingpad { ptr, i32 }
          cleanup
  %19 = extractvalue { ptr, i32 } %18, 0
  store ptr %19, ptr %10, align 8
  %20 = extractvalue { ptr, i32 } %18, 1
  store i32 %20, ptr %11, align 4
  call void @_ZN12_GLOBAL__N_122RadialVarianceHashImplD2Ev(ptr noundef nonnull align 8 dereferenceable(432) %9) #3
  call void @llvm.lifetime.end.p0(i64 432, ptr %9) #3
  br label %21

21:                                               ; preds = %17
  %22 = load ptr, ptr %10, align 8
  %23 = load i32, ptr %11, align 4
  %24 = insertvalue { ptr, i32 } poison, ptr %22, 0
  %25 = insertvalue { ptr, i32 } %24, i32 %23, 1
  resume { ptr, i32 } %25
}