; Function Attrs: mustprogress uwtable
define void @_ZN2cv8img_hash18radialVarianceHashERKNS_11_InputArrayERKNS_12_OutputArrayEdi(ptr noundef nonnull align 8 dereferenceable(24) %0, ptr noundef nonnull align 8 dereferenceable(24) %1, double noundef %2, i32 noundef %3) local_unnamed_addr #3 personality ptr @__gxx_personality_v0 {
  %5 = alloca %"class.(anonymous namespace)::RadialVarianceHashImpl", align 8
  call void @llvm.lifetime.start.p0(i64 432, ptr nonnull %5) #23
  store ptr getelementptr inbounds nuw inrange(-16, 32) (i8, ptr @_ZTVN12_GLOBAL__N_122RadialVarianceHashImplE, i64 16), ptr %5, align 8, !tbaa !3
  %6 = getelementptr inbounds nuw i8, ptr %5, i64 8
  call void @_ZN2cv3MatC1Ev(ptr noundef nonnull align 8 dereferenceable(96) %6) #23
  %7 = getelementptr inbounds nuw i8, ptr %5, i64 104
  call void @llvm.memset.p0.i64(ptr noundef nonnull align 8 dereferenceable(24) %7, i8 0, i64 24, i1 false)
  %8 = getelementptr inbounds nuw i8, ptr %5, i64 128
  call void @_ZN2cv3MatC1Ev(ptr noundef nonnull align 8 dereferenceable(96) %8) #23
  %9 = getelementptr inbounds nuw i8, ptr %5, i64 224
  store i32 %3, ptr %9, align 8, !tbaa !25
  %10 = getelementptr inbounds nuw i8, ptr %5, i64 232
  call void @_ZN2cv3MatC1Ev(ptr noundef nonnull align 8 dereferenceable(96) %10) #23
  %11 = getelementptr inbounds nuw i8, ptr %5, i64 328
  call void @_ZN2cv3MatC1Ev(ptr noundef nonnull align 8 dereferenceable(96) %11) #23
  %12 = getelementptr inbounds nuw i8, ptr %5, i64 424
  store double %2, ptr %12, align 8, !tbaa !42
  invoke void @_ZN12_GLOBAL__N_122RadialVarianceHashImpl7computeERKN2cv11_InputArrayERKNS1_12_OutputArrayE(ptr noundef nonnull align 8 dereferenceable(432) %5, ptr noundef nonnull align 8 dereferenceable(24) %0, ptr noundef nonnull align 8 dereferenceable(24) %1)
          to label %13 unwind label %16

13:                                               ; preds = %4
  call void @_ZN2cv3MatD1Ev(ptr noundef nonnull align 8 dereferenceable(96) %11) #23
  call void @_ZN2cv3MatD1Ev(ptr noundef nonnull align 8 dereferenceable(96) %10) #23
  call void @_ZN2cv3MatD1Ev(ptr noundef nonnull align 8 dereferenceable(96) %8) #23
  %14 = load ptr, ptr %7, align 8, !tbaa !55
  %.not.i.i.i.i = icmp eq ptr %14, null
  br i1 %.not.i.i.i.i, label %_ZN12_GLOBAL__N_122RadialVarianceHashImplD2Ev.exit, label %15

15:                                               ; preds = %13
  call void @_ZdlPv(ptr noundef nonnull %14) #26
  br label %_ZN12_GLOBAL__N_122RadialVarianceHashImplD2Ev.exit

_ZN12_GLOBAL__N_122RadialVarianceHashImplD2Ev.exit: ; preds = %13, %15
  call void @_ZN2cv3MatD1Ev(ptr noundef nonnull align 8 dereferenceable(96) %6) #23
  call void @llvm.lifetime.end.p0(i64 432, ptr nonnull %5) #23
  ret void

16:                                               ; preds = %4
  %17 = landingpad { ptr, i32 }
          cleanup
  call void @_ZN12_GLOBAL__N_122RadialVarianceHashImplD2Ev(ptr noundef nonnull align 8 dereferenceable(432) %5) #23
  call void @llvm.lifetime.end.p0(i64 432, ptr nonnull %5) #23
  resume { ptr, i32 } %17
}